target datalayout = "e-m:e-p270:32:32-p271:32:32-p272:64:64-i64:64-i128:128-f80:128-n8:16:32:64-S128"
target triple = "x86_64-pc-linux-gnu"

%struct.pmix_bfrops_base_component_t = type { %struct.pmix_mca_base_component_2_1_0_t, i32, %struct.pmix_pointer_array_t, ptr }
%struct.pmix_mca_base_component_2_1_0_t = type { i32, i32, i32, [16 x i8], i32, i32, i32, [32 x i8], i32, i32, i32, [64 x i8], i32, i32, i32, ptr, ptr, ptr, ptr, [32 x i8] }
%struct.pmix_pointer_array_t = type { %struct.pmix_object_t, i32, i32, i32, i32, i32, ptr, ptr }
%struct.pmix_object_t = type { %union.pthread_mutex_t, ptr, i32, %struct.pmix_tma }
%union.pthread_mutex_t = type { %struct.__pthread_mutex_s }
%struct.__pthread_mutex_s = type { i32, i32, i32, i32, i32, i16, i16, %struct.__pthread_internal_list }
%struct.__pthread_internal_list = type { ptr, ptr }
%struct.pmix_tma = type { ptr, ptr, ptr, ptr, ptr, ptr, ptr, ptr }
%struct.pmix_mca_base_framework_t = type { ptr, ptr, ptr, ptr, ptr, ptr, i32, i32, ptr, ptr, i32, i32, %struct.pmix_list_t, %struct.pmix_list_t }
%struct.pmix_list_t = type { %struct.pmix_object_t, %struct.pmix_list_item_t, i64 }
%struct.pmix_list_item_t = type { %struct.pmix_object_t, ptr, ptr, i32 }
%struct.pmix_output_desc_t = type { i8, i8, i32, i8, i32, ptr, ptr, i32, ptr, i32, i8, i8, i8, i8, ptr, i32, i32 }
%struct.pmix_buffer_t = type { %struct.pmix_object_t, i8, ptr, ptr, ptr, i64, i64 }
%struct.pmix_bfrop_type_info_t = type { %struct.pmix_object_t, i16, ptr, ptr, ptr, ptr, ptr }

@pmix_mca_bfrops_v20_component = external global %struct.pmix_bfrops_base_component_t, align 8
@pmix_bfrops_base_framework = external global %struct.pmix_mca_base_framework_t, align 8
@pmix_output_info = external global [0 x %struct.pmix_output_desc_t], align 8
@.str = private unnamed_addr constant [45 x i8] c"pmix20_bfrop_pack_buffer( %p, %p, %lu, %d )\0A\00", align 1

; Function Attrs: inlinehint nounwind uwtable
define internal ptr @pmix_pointer_array_get_item(ptr noundef %0, i32 noundef %1) #3 {
  %3 = alloca ptr, align 8
  %4 = alloca ptr, align 8
  %5 = alloca i32, align 4
  %6 = alloca ptr, align 8
  %7 = alloca i32, align 4
  store ptr %0, ptr %4, align 8, !tbaa !11
  store i32 %1, ptr %5, align 4, !tbaa !7
  call void @llvm.lifetime.start.p0(i64 8, ptr %6) #9
  %8 = load i32, ptr %5, align 4, !tbaa !7
  %9 = icmp sgt i32 0, %8
  br i1 %9, label %16, label %10

10:                                               ; preds = %2
  %11 = load ptr, ptr %4, align 8, !tbaa !11
  %12 = getelementptr inbounds nuw %struct.pmix_pointer_array_t, ptr %11, i32 0, i32 3
  %13 = load i32, ptr %12, align 8, !tbaa !38
  %14 = load i32, ptr %5, align 4, !tbaa !7
  %15 = icmp sle i32 %13, %14
  br label %16

16:                                               ; preds = %10, %2
  %17 = phi i1 [ true, %2 ], [ %15, %10 ]
  %18 = xor i1 %17, true
  %19 = xor i1 %18, true
  %20 = zext i1 %19 to i32
  %21 = sext i32 %20 to i64
  %22 = call i64 @llvm.expect.i64(i64 %21, i64 0)
  %23 = icmp ne i64 %22, 0
  br i1 %23, label %24, label %25

24:                                               ; preds = %16
  store ptr null, ptr %3, align 8
  store i32 1, ptr %7, align 4
  br label %34

25:                                               ; preds = %16
  %26 = load ptr, ptr %4, align 8, !tbaa !11
  %27 = getelementptr inbounds nuw %struct.pmix_pointer_array_t, ptr %26, i32 0, i32 7
  %28 = load ptr, ptr %27, align 8, !tbaa !41
  %29 = load i32, ptr %5, align 4, !tbaa !7
  %30 = sext i32 %29 to i64
  %31 = getelementptr inbounds ptr, ptr %28, i64 %30
  %32 = load ptr, ptr %31, align 8, !tbaa !3
  store ptr %32, ptr %6, align 8, !tbaa !3
  %33 = load ptr, ptr %6, align 8, !tbaa !3
  store ptr %33, ptr %3, align 8
  store i32 1, ptr %7, align 4
  br label %34

34:                                               ; preds = %25, %24
  call void @llvm.lifetime.end.p0(i64 8, ptr %6) #9
  %35 = load ptr, ptr %3, align 8
  ret ptr %35
}

; Function Attrs: nounwind uwtable
define i32 @pmix20_bfrop_pack_buffer(ptr noundef %0, ptr noundef %1, ptr noundef %2, i32 noundef %3, i16 noundef zeroext %4) #0 {
  %6 = alloca i32, align 4
  %7 = alloca ptr, align 8
  %8 = alloca ptr, align 8
  %9 = alloca ptr, align 8
  %10 = alloca i32, align 4
  %11 = alloca i16, align 2
  %12 = alloca i16, align 2
  %13 = alloca i32, align 4
  %14 = alloca ptr, align 8
  %15 = alloca i32, align 4
  store ptr %0, ptr %7, align 8, !tbaa !11
  store ptr %1, ptr %8, align 8, !tbaa !3
  store ptr %2, ptr %9, align 8, !tbaa !3
  store i32 %3, ptr %10, align 4, !tbaa !7
  store i16 %4, ptr %11, align 2, !tbaa !9
  call void @llvm.lifetime.start.p0(i64 2, ptr %12) #9
  call void @llvm.lifetime.start.p0(i64 4, ptr %13) #9
  call void @llvm.lifetime.start.p0(i64 8, ptr %14) #9
  %16 = load i32, ptr getelementptr inbounds nuw (%struct.pmix_mca_base_framework_t, ptr @pmix_bfrops_base_framework, i32 0, i32 11), align 4, !tbaa !22
  %17 = icmp sge i32 %16, 0
  br i1 %17, label %18, label %36

18:                                               ; preds = %5
  %19 = load i32, ptr getelementptr inbounds nuw (%struct.pmix_mca_base_framework_t, ptr @pmix_bfrops_base_framework, i32 0, i32 11), align 4, !tbaa !22
  %20 = icmp slt i32 %19, 64
  br i1 %20, label %21, label %36

21:                                               ; preds = %18
  %22 = load i32, ptr getelementptr inbounds nuw (%struct.pmix_mca_base_framework_t, ptr @pmix_bfrops_base_framework, i32 0, i32 11), align 4, !tbaa !22
  %23 = sext i32 %22 to i64
  %24 = getelementptr inbounds [0 x %struct.pmix_output_desc_t], ptr @pmix_output_info, i64 0, i64 %23
  %25 = getelementptr inbounds nuw %struct.pmix_output_desc_t, ptr %24, i32 0, i32 2
  %26 = load i32, ptr %25, align 4, !tbaa !28
  %27 = icmp sge i32 %26, 20
  br i1 %27, label %28, label %36

28:                                               ; preds = %21
  %29 = load i32, ptr getelementptr inbounds nuw (%struct.pmix_mca_base_framework_t, ptr @pmix_bfrops_base_framework, i32 0, i32 11), align 4, !tbaa !22
  %30 = load ptr, ptr %8, align 8, !tbaa !3
  %31 = load ptr, ptr %9, align 8, !tbaa !3
  %32 = load i32, ptr %10, align 4, !tbaa !7
  %33 = sext i32 %32 to i64
  %34 = load i16, ptr %11, align 2, !tbaa !9
  %35 = zext i16 %34 to i32
  call void (i32, ptr, ...) @pmix_output(i32 noundef %29, ptr noundef @.str, ptr noundef %30, ptr noundef %31, i64 noundef %33, i32 noundef %35)
  br label %36

36:                                               ; preds = %28, %21, %18, %5
  %37 = load i16, ptr %11, align 2, !tbaa !9
  %38 = zext i16 %37 to i32
  switch i32 %38, label %40 [
    i32 34, label %39
  ]

39:                                               ; preds = %36
  store i16 14, ptr %12, align 2, !tbaa !9
  br label %42

40:                                               ; preds = %36
  %41 = load i16, ptr %11, align 2, !tbaa !9
  store i16 %41, ptr %12, align 2, !tbaa !9
  br label %42

42:                                               ; preds = %40, %39
  %43 = load ptr, ptr %8, align 8, !tbaa !3
  %44 = getelementptr inbounds nuw %struct.pmix_buffer_t, ptr %43, i32 0, i32 1
  %45 = load i8, ptr %44, align 8, !tbaa !13
  %46 = zext i8 %45 to i32
  %47 = icmp eq i32 2, %46
  br i1 %47, label %48, label %57

48:                                               ; preds = %42
  %49 = load ptr, ptr %7, align 8, !tbaa !11
  %50 = load ptr, ptr %8, align 8, !tbaa !3
  %51 = load i16, ptr %12, align 2, !tbaa !9
  %52 = call i32 @pmix20_bfrop_store_data_type(ptr noundef %49, ptr noundef %50, i16 noundef zeroext %51)
  store i32 %52, ptr %13, align 4, !tbaa !7
  %53 = icmp ne i32 0, %52
  br i1 %53, label %54, label %56

54:                                               ; preds = %48
  %55 = load i32, ptr %13, align 4, !tbaa !7
  store i32 %55, ptr %6, align 4
  store i32 1, ptr %15, align 4
  br label %73

56:                                               ; preds = %48
  br label %57

57:                                               ; preds = %56, %42
  %58 = load i16, ptr %12, align 2, !tbaa !9
  %59 = zext i16 %58 to i32
  %60 = call ptr @pmix_pointer_array_get_item(ptr noundef getelementptr inbounds nuw (%struct.pmix_bfrops_base_component_t, ptr @pmix_mca_bfrops_v20_component, i32 0, i32 2), i32 noundef %59)
  store ptr %60, ptr %14, align 8, !tbaa !3
  %61 = icmp eq ptr null, %60
  br i1 %61, label %62, label %63

62:                                               ; preds = %57
  store i32 -21, ptr %6, align 4
  store i32 1, ptr %15, align 4
  br label %73

63:                                               ; preds = %57
  %64 = load ptr, ptr %14, align 8, !tbaa !3
  %65 = getelementptr inbounds nuw %struct.pmix_bfrop_type_info_t, ptr %64, i32 0, i32 3
  %66 = load ptr, ptr %65, align 8, !tbaa !36
  %67 = load ptr, ptr %7, align 8, !tbaa !11
  %68 = load ptr, ptr %8, align 8, !tbaa !3
  %69 = load ptr, ptr %9, align 8, !tbaa !3
  %70 = load i32, ptr %10, align 4, !tbaa !7
  %71 = load i16, ptr %12, align 2, !tbaa !9
  %72 = call i32 %66(ptr noundef %67, ptr noundef %68, ptr noundef %69, i32 noundef %70, i16 noundef zeroext %71)
  store i32 %72, ptr %6, align 4
  store i32 1, ptr %15, align 4
  br label %73

73:                                               ; preds = %63, %62, %54
  call void @llvm.lifetime.end.p0(i64 8, ptr %14) #9
  call void @llvm.lifetime.end.p0(i64 4, ptr %13) #9
  call void @llvm.lifetime.end.p0(i64 2, ptr %12) #9
  %74 = load i32, ptr %6, align 4
  ret i32 %74
}

; Function Attrs: nounwind uwtable
define i32 @pmix20_bfrop_pack_int(ptr noundef %0, ptr noundef %1, ptr noundef %2, i32 noundef %3, i16 noundef zeroext %4) #0 {
  %6 = alloca i32, align 4
  %7 = alloca ptr, align 8
  %8 = alloca ptr, align 8
  %9 = alloca ptr, align 8
  %10 = alloca i32, align 4
  %11 = alloca i16, align 2
  %12 = alloca i32, align 4
  %13 = alloca i32, align 4
  store ptr %0, ptr %7, align 8, !tbaa !11
  store ptr %1, ptr %8, align 8, !tbaa !3
  store ptr %2, ptr %9, align 8, !tbaa !3
  store i32 %3, ptr %10, align 4, !tbaa !7
  store i16 %4, ptr %11, align 2, !tbaa !9
  call void @llvm.lifetime.start.p0(i64 4, ptr %12) #9
  %14 = load ptr, ptr %7, align 8, !tbaa !11
  %15 = load ptr, ptr %8, align 8, !tbaa !3
  %16 = call i32 @pmix20_bfrop_store_data_type(ptr noundef %14, ptr noundef %15, i16 noundef zeroext 9)
  store i32 %16, ptr %12, align 4, !tbaa !7
  %17 = icmp ne i32 0, %16
  br i1 %17, label %18, label %20

18:                                               ; preds = %5
  %19 = load i32, ptr %12, align 4, !tbaa !7
  store i32 %19, ptr %6, align 4
  store i32 1, ptr %13, align 4
  br label %26

20:                                               ; preds = %5
  %21 = load ptr, ptr %7, align 8, !tbaa !11
  %22 = load ptr, ptr %8, align 8, !tbaa !3
  %23 = load ptr, ptr %9, align 8, !tbaa !3
  %24 = load i32, ptr %10, align 4, !tbaa !7
  %25 = call i32 @pmix20_bfrop_pack_buffer(ptr noundef %21, ptr noundef %22, ptr noundef %23, i32 noundef %24, i16 noundef zeroext 9)
  store i32 %25, ptr %6, align 4
  store i32 1, ptr %13, align 4
  br label %26

26:                                               ; preds = %20, %18
  call void @llvm.lifetime.end.p0(i64 4, ptr %12) #9
  %27 = load i32, ptr %6, align 4
  ret i32 %27
}