; Function Attrs: nounwind uwtable
define i32 @pmix20_bfrop_pack_int(ptr noundef %0, ptr noundef %1, ptr noundef %2, i32 noundef %3, i16 noundef zeroext %4) local_unnamed_addr #0 {
  %6 = tail call i32 @pmix20_bfrop_store_data_type(ptr noundef %0, ptr noundef %1, i16 noundef zeroext 9) #8
  %.not = icmp eq i32 %6, 0
  br i1 %.not, label %7, label %pmix20_bfrop_pack_buffer.exit

7:                                                ; preds = %5
  %8 = load i32, ptr getelementptr inbounds nuw (i8, ptr @pmix_bfrops_base_framework, i64 76), align 4, !tbaa !14
  %or.cond.i = icmp ult i32 %8, 64
  br i1 %or.cond.i, label %9, label %16

9:                                                ; preds = %7
  %10 = zext nneg i32 %8 to i64
  %11 = getelementptr inbounds nuw [0 x %struct.pmix_output_desc_t], ptr @pmix_output_info, i64 0, i64 %10, i32 2
  %12 = load i32, ptr %11, align 4, !tbaa !20
  %13 = icmp sgt i32 %12, 19
  br i1 %13, label %14, label %16

14:                                               ; preds = %9
  %15 = sext i32 %3 to i64
  tail call void (i32, ptr, ...) @pmix_output(i32 noundef %8, ptr noundef nonnull @.str, ptr noundef %1, ptr noundef %2, i64 noundef %15, i32 noundef 9) #8
  br label %16

16:                                               ; preds = %14, %9, %7
  %17 = getelementptr inbounds nuw i8, ptr %1, i64 120
  %18 = load i8, ptr %17, align 8, !tbaa !3
  %19 = icmp eq i8 %18, 2
  br i1 %19, label %20, label %22

20:                                               ; preds = %16
  %21 = tail call i32 @pmix20_bfrop_store_data_type(ptr noundef %0, ptr noundef nonnull %1, i16 noundef zeroext 9) #8
  %.not.i = icmp eq i32 %21, 0
  br i1 %.not.i, label %22, label %pmix20_bfrop_pack_buffer.exit

22:                                               ; preds = %20, %16
  %23 = load i32, ptr getelementptr inbounds nuw (i8, ptr @pmix_mca_bfrops_v20_component, i64 360), align 8, !tbaa !25
  %.not.i.i = icmp sgt i32 %23, 9
  br i1 %.not.i.i, label %pmix_pointer_array_get_item.exit.i, label %pmix20_bfrop_pack_buffer.exit, !prof !28

pmix_pointer_array_get_item.exit.i:               ; preds = %22
  %24 = load ptr, ptr getelementptr inbounds nuw (i8, ptr @pmix_mca_bfrops_v20_component, i64 384), align 8, !tbaa !29
  %25 = getelementptr inbounds nuw i8, ptr %24, i64 72
  %26 = load ptr, ptr %25, align 8, !tbaa !30
  %27 = icmp eq ptr %26, null
  br i1 %27, label %pmix20_bfrop_pack_buffer.exit, label %28

28:                                               ; preds = %pmix_pointer_array_get_item.exit.i
  %29 = getelementptr inbounds nuw i8, ptr %26, i64 136
  %30 = load ptr, ptr %29, align 8, !tbaa !31
  %31 = tail call i32 %30(ptr noundef %0, ptr noundef nonnull %1, ptr noundef %2, i32 noundef %3, i16 noundef zeroext 9) #8
  br label %pmix20_bfrop_pack_buffer.exit

pmix20_bfrop_pack_buffer.exit:                    ; preds = %28, %pmix_pointer_array_get_item.exit.i, %22, %20, %5
  %.0 = phi i32 [ %6, %5 ], [ %31, %28 ], [ %21, %20 ], [ -21, %pmix_pointer_array_get_item.exit.i ], [ -21, %22 ]
  ret i32 %.0
}